target datalayout = "e-m:e-p270:32:32-p271:32:32-p272:64:64-i64:64-i128:128-f80:128-n8:16:32:64-S128"
target triple = "x86_64-pc-linux-gnu"

%struct.lxb_html_tokenizer = type { ptr, ptr, ptr, ptr, ptr, ptr, ptr, ptr, ptr, ptr, ptr, ptr, ptr, ptr, ptr, i64, ptr, ptr, ptr, ptr, ptr, i64, i64, ptr, ptr, i64, i64, i32, i32, i8, i32, i32, i8, ptr, i64 }
%struct.lxb_html_token_t = type { ptr, ptr, i64, i64, ptr, ptr, ptr, ptr, ptr, i64, i64, i32 }

; Function Attrs: nounwind uwtable
define internal void @lxb_html_token_clean(ptr noundef %0) #0 {
  %2 = alloca ptr, align 8
  store ptr %0, ptr %2, align 8
  %3 = load ptr, ptr %2, align 8
  call void @llvm.memset.p0.i64(ptr align 8 %3, i8 0, i64 96, i1 false)
  ret void
}

; Function Attrs: nounwind uwtable
define internal ptr @lxb_html_tokenizer_state_doctype_before_public_identifier(ptr noundef %0, ptr noundef %1, ptr noundef %2) #0 {
  %4 = alloca ptr, align 8
  %5 = alloca ptr, align 8
  %6 = alloca ptr, align 8
  %7 = alloca ptr, align 8
  store ptr %0, ptr %5, align 8
  store ptr %1, ptr %6, align 8
  store ptr %2, ptr %7, align 8
  %8 = load ptr, ptr %6, align 8
  %9 = load i8, ptr %8, align 1
  %10 = zext i8 %9 to i32
  switch i32 %10, label %155 [
    i32 9, label %11
    i32 10, label %11
    i32 12, label %11
    i32 13, label %11
    i32 32, label %11
    i32 34, label %12
    i32 39, label %15
    i32 62, label %18
    i32 0, label %83
  ]

11:                                               ; preds = %3, %3, %3, %3, %3
  br label %170

12:                                               ; preds = %3
  %13 = load ptr, ptr %5, align 8
  %14 = getelementptr inbounds %struct.lxb_html_tokenizer, ptr %13, i32 0, i32 0
  store ptr @lxb_html_tokenizer_state_doctype_public_identifier_double_quoted, ptr %14, align 8
  br label %170

15:                                               ; preds = %3
  %16 = load ptr, ptr %5, align 8
  %17 = getelementptr inbounds %struct.lxb_html_tokenizer, ptr %16, i32 0, i32 0
  store ptr @lxb_html_tokenizer_state_doctype_public_identifier_single_quoted, ptr %17, align 8
  br label %170

18:                                               ; preds = %3
  %19 = load ptr, ptr %5, align 8
  %20 = getelementptr inbounds %struct.lxb_html_tokenizer, ptr %19, i32 0, i32 8
  %21 = load ptr, ptr %20, align 8
  %22 = getelementptr inbounds %struct.lxb_html_token_t, ptr %21, i32 0, i32 11
  %23 = load i32, ptr %22, align 8
  %24 = or i32 %23, 4
  store i32 %24, ptr %22, align 8
  %25 = load ptr, ptr %5, align 8
  %26 = getelementptr inbounds %struct.lxb_html_tokenizer, ptr %25, i32 0, i32 0
  store ptr @lxb_html_tokenizer_state_data_before, ptr %26, align 8
  %27 = load ptr, ptr %5, align 8
  %28 = getelementptr inbounds %struct.lxb_html_tokenizer, ptr %27, i32 0, i32 11
  %29 = load ptr, ptr %28, align 8
  %30 = load ptr, ptr %6, align 8
  %31 = call ptr @lxb_html_tokenizer_error_add(ptr noundef %29, ptr noundef %30, i32 noundef 23)
  br label %32

32:                                               ; preds = %18
  %33 = load ptr, ptr %5, align 8
  %34 = getelementptr inbounds %struct.lxb_html_tokenizer, ptr %33, i32 0, i32 8
  %35 = load ptr, ptr %34, align 8
  %36 = getelementptr inbounds %struct.lxb_html_token_t, ptr %35, i32 0, i32 0
  %37 = load ptr, ptr %36, align 8
  %38 = load ptr, ptr %5, align 8
  %39 = getelementptr inbounds %struct.lxb_html_tokenizer, ptr %38, i32 0, i32 8
  %40 = load ptr, ptr %39, align 8
  %41 = getelementptr inbounds %struct.lxb_html_token_t, ptr %40, i32 0, i32 1
  %42 = load ptr, ptr %41, align 8
  %43 = icmp ne ptr %37, %42
  br i1 %43, label %44, label %73

44:                                               ; preds = %32
  %45 = load ptr, ptr %5, align 8
  %46 = getelementptr inbounds %struct.lxb_html_tokenizer, ptr %45, i32 0, i32 2
  %47 = load ptr, ptr %46, align 8
  %48 = load ptr, ptr %5, align 8
  %49 = load ptr, ptr %5, align 8
  %50 = getelementptr inbounds %struct.lxb_html_tokenizer, ptr %49, i32 0, i32 8
  %51 = load ptr, ptr %50, align 8
  %52 = load ptr, ptr %5, align 8
  %53 = getelementptr inbounds %struct.lxb_html_tokenizer, ptr %52, i32 0, i32 3
  %54 = load ptr, ptr %53, align 8
  %55 = call ptr %47(ptr noundef %48, ptr noundef %51, ptr noundef %54)
  %56 = load ptr, ptr %5, align 8
  %57 = getelementptr inbounds %struct.lxb_html_tokenizer, ptr %56, i32 0, i32 8
  store ptr %55, ptr %57, align 8
  %58 = load ptr, ptr %5, align 8
  %59 = getelementptr inbounds %struct.lxb_html_tokenizer, ptr %58, i32 0, i32 8
  %60 = load ptr, ptr %59, align 8
  %61 = icmp eq ptr %60, null
  br i1 %61, label %62, label %72

62:                                               ; preds = %44
  %63 = load ptr, ptr %5, align 8
  %64 = getelementptr inbounds %struct.lxb_html_tokenizer, ptr %63, i32 0, i32 31
  %65 = load i32, ptr %64, align 8
  %66 = icmp eq i32 %65, 0
  br i1 %66, label %67, label %70

67:                                               ; preds = %62
  %68 = load ptr, ptr %5, align 8
  %69 = getelementptr inbounds %struct.lxb_html_tokenizer, ptr %68, i32 0, i32 31
  store i32 1, ptr %69, align 8
  br label %70

70:                                               ; preds = %67, %62
  %71 = load ptr, ptr %7, align 8
  store ptr %71, ptr %4, align 8
  br label %173

72:                                               ; preds = %44
  br label %73

73:                                               ; preds = %72, %32
  %74 = load ptr, ptr %5, align 8
  %75 = getelementptr inbounds %struct.lxb_html_tokenizer, ptr %74, i32 0, i32 8
  %76 = load ptr, ptr %75, align 8
  call void @lxb_html_token_clean(ptr noundef %76)
  %77 = load ptr, ptr %5, align 8
  %78 = getelementptr inbounds %struct.lxb_html_tokenizer, ptr %77, i32 0, i32 16
  %79 = load ptr, ptr %78, align 8
  %80 = load ptr, ptr %5, align 8
  %81 = getelementptr inbounds %struct.lxb_html_tokenizer, ptr %80, i32 0, i32 17
  store ptr %79, ptr %81, align 8
  br label %82

82:                                               ; preds = %73
  br label %170

83:                                               ; preds = %3
  %84 = load ptr, ptr %5, align 8
  %85 = getelementptr inbounds %struct.lxb_html_tokenizer, ptr %84, i32 0, i32 32
  %86 = load i8, ptr %85, align 4
  %87 = trunc i8 %86 to i1
  br i1 %87, label %88, label %154

88:                                               ; preds = %83
  %89 = load ptr, ptr %5, align 8
  %90 = getelementptr inbounds %struct.lxb_html_tokenizer, ptr %89, i32 0, i32 11
  %91 = load ptr, ptr %90, align 8
  %92 = load ptr, ptr %5, align 8
  %93 = getelementptr inbounds %struct.lxb_html_tokenizer, ptr %92, i32 0, i32 20
  %94 = load ptr, ptr %93, align 8
  %95 = call ptr @lxb_html_tokenizer_error_add(ptr noundef %91, ptr noundef %94, i32 noundef 14)
  %96 = load ptr, ptr %5, align 8
  %97 = getelementptr inbounds %struct.lxb_html_tokenizer, ptr %96, i32 0, i32 8
  %98 = load ptr, ptr %97, align 8
  %99 = getelementptr inbounds %struct.lxb_html_token_t, ptr %98, i32 0, i32 11
  %100 = load i32, ptr %99, align 8
  %101 = or i32 %100, 4
  store i32 %101, ptr %99, align 8
  br label %102

102:                                              ; preds = %88
  %103 = load ptr, ptr %5, align 8
  %104 = getelementptr inbounds %struct.lxb_html_tokenizer, ptr %103, i32 0, i32 8
  %105 = load ptr, ptr %104, align 8
  %106 = getelementptr inbounds %struct.lxb_html_token_t, ptr %105, i32 0, i32 0
  %107 = load ptr, ptr %106, align 8
  %108 = load ptr, ptr %5, align 8
  %109 = getelementptr inbounds %struct.lxb_html_tokenizer, ptr %108, i32 0, i32 8
  %110 = load ptr, ptr %109, align 8
  %111 = getelementptr inbounds %struct.lxb_html_token_t, ptr %110, i32 0, i32 1
  %112 = load ptr, ptr %111, align 8
  %113 = icmp ne ptr %107, %112
  br i1 %113, label %114, label %143

114:                                              ; preds = %102
  %115 = load ptr, ptr %5, align 8
  %116 = getelementptr inbounds %struct.lxb_html_tokenizer, ptr %115, i32 0, i32 2
  %117 = load ptr, ptr %116, align 8
  %118 = load ptr, ptr %5, align 8
  %119 = load ptr, ptr %5, align 8
  %120 = getelementptr inbounds %struct.lxb_html_tokenizer, ptr %119, i32 0, i32 8
  %121 = load ptr, ptr %120, align 8
  %122 = load ptr, ptr %5, align 8
  %123 = getelementptr inbounds %struct.lxb_html_tokenizer, ptr %122, i32 0, i32 3
  %124 = load ptr, ptr %123, align 8
  %125 = call ptr %117(ptr noundef %118, ptr noundef %121, ptr noundef %124)
  %126 = load ptr, ptr %5, align 8
  %127 = getelementptr inbounds %struct.lxb_html_tokenizer, ptr %126, i32 0, i32 8
  store ptr %125, ptr %127, align 8
  %128 = load ptr, ptr %5, align 8
  %129 = getelementptr inbounds %struct.lxb_html_tokenizer, ptr %128, i32 0, i32 8
  %130 = load ptr, ptr %129, align 8
  %131 = icmp eq ptr %130, null
  br i1 %131, label %132, label %142

132:                                              ; preds = %114
  %133 = load ptr, ptr %5, align 8
  %134 = getelementptr inbounds %struct.lxb_html_tokenizer, ptr %133, i32 0, i32 31
  %135 = load i32, ptr %134, align 8
  %136 = icmp eq i32 %135, 0
  br i1 %136, label %137, label %140

137:                                              ; preds = %132
  %138 = load ptr, ptr %5, align 8
  %139 = getelementptr inbounds %struct.lxb_html_tokenizer, ptr %138, i32 0, i32 31
  store i32 1, ptr %139, align 8
  br label %140

140:                                              ; preds = %137, %132
  %141 = load ptr, ptr %7, align 8
  store ptr %141, ptr %4, align 8
  br label %173

142:                                              ; preds = %114
  br label %143

143:                                              ; preds = %142, %102
  %144 = load ptr, ptr %5, align 8
  %145 = getelementptr inbounds %struct.lxb_html_tokenizer, ptr %144, i32 0, i32 8
  %146 = load ptr, ptr %145, align 8
  call void @lxb_html_token_clean(ptr noundef %146)
  %147 = load ptr, ptr %5, align 8
  %148 = getelementptr inbounds %struct.lxb_html_tokenizer, ptr %147, i32 0, i32 16
  %149 = load ptr, ptr %148, align 8
  %150 = load ptr, ptr %5, align 8
  %151 = getelementptr inbounds %struct.lxb_html_tokenizer, ptr %150, i32 0, i32 17
  store ptr %149, ptr %151, align 8
  br label %152

152:                                              ; preds = %143
  %153 = load ptr, ptr %7, align 8
  store ptr %153, ptr %4, align 8
  br label %173

154:                                              ; preds = %83
  br label %155

155:                                              ; preds = %154, %3
  %156 = load ptr, ptr %5, align 8
  %157 = getelementptr inbounds %struct.lxb_html_tokenizer, ptr %156, i32 0, i32 11
  %158 = load ptr, ptr %157, align 8
  %159 = load ptr, ptr %6, align 8
  %160 = call ptr @lxb_html_tokenizer_error_add(ptr noundef %158, ptr noundef %159, i32 noundef 26)
  %161 = load ptr, ptr %5, align 8
  %162 = getelementptr inbounds %struct.lxb_html_tokenizer, ptr %161, i32 0, i32 8
  %163 = load ptr, ptr %162, align 8
  %164 = getelementptr inbounds %struct.lxb_html_token_t, ptr %163, i32 0, i32 11
  %165 = load i32, ptr %164, align 8
  %166 = or i32 %165, 4
  store i32 %166, ptr %164, align 8
  %167 = load ptr, ptr %5, align 8
  %168 = getelementptr inbounds %struct.lxb_html_tokenizer, ptr %167, i32 0, i32 0
  store ptr @lxb_html_tokenizer_state_doctype_bogus, ptr %168, align 8
  %169 = load ptr, ptr %6, align 8
  store ptr %169, ptr %4, align 8
  br label %173

170:                                              ; preds = %82, %15, %12, %11
  %171 = load ptr, ptr %6, align 8
  %172 = getelementptr inbounds i8, ptr %171, i64 1
  store ptr %172, ptr %4, align 8
  br label %173

173:                                              ; preds = %170, %155, %152, %140, %70
  %174 = load ptr, ptr %4, align 8
  ret ptr %174
}