; Function Attrs: nounwind uwtable
define internal ptr @lxb_html_tokenizer_state_doctype_before_public_identifier(ptr noundef %0, ptr noundef %1, ptr noundef readnone %2) #0 {
  %4 = load i8, ptr %1, align 1
  switch i8 %4, label %73 [
    i8 9, label %82
    i8 10, label %82
    i8 12, label %82
    i8 13, label %82
    i8 32, label %82
    i8 34, label %5
    i8 39, label %6
    i8 62, label %7
    i8 0, label %37
  ]

5:                                                ; preds = %3
  store ptr @lxb_html_tokenizer_state_doctype_public_identifier_double_quoted, ptr %0, align 8
  br label %82

6:                                                ; preds = %3
  store ptr @lxb_html_tokenizer_state_doctype_public_identifier_single_quoted, ptr %0, align 8
  br label %82

7:                                                ; preds = %3
  %8 = getelementptr inbounds i8, ptr %0, i64 64
  %9 = load ptr, ptr %8, align 8
  %10 = getelementptr inbounds i8, ptr %9, i64 88
  %11 = load i32, ptr %10, align 8
  %12 = or i32 %11, 4
  store i32 %12, ptr %10, align 8
  store ptr @lxb_html_tokenizer_state_data_before, ptr %0, align 8
  %13 = getelementptr inbounds i8, ptr %0, i64 88
  %14 = load ptr, ptr %13, align 8
  %15 = tail call ptr @lxb_html_tokenizer_error_add(ptr noundef %14, ptr noundef nonnull %1, i32 noundef 23) #4
  %16 = load ptr, ptr %8, align 8
  %17 = load ptr, ptr %16, align 8
  %18 = getelementptr inbounds i8, ptr %16, i64 8
  %19 = load ptr, ptr %18, align 8
  %.not48 = icmp eq ptr %17, %19
  br i1 %.not48, label %32, label %20

20:                                               ; preds = %7
  %21 = getelementptr inbounds i8, ptr %0, i64 16
  %22 = load ptr, ptr %21, align 8
  %23 = getelementptr inbounds i8, ptr %0, i64 24
  %24 = load ptr, ptr %23, align 8
  %25 = tail call ptr %22(ptr noundef nonnull %0, ptr noundef nonnull %16, ptr noundef %24) #4
  store ptr %25, ptr %8, align 8
  %26 = icmp eq ptr %25, null
  br i1 %26, label %27, label %32

27:                                               ; preds = %20
  %28 = getelementptr inbounds i8, ptr %0, i64 232
  %29 = load i32, ptr %28, align 8
  %30 = icmp eq i32 %29, 0
  br i1 %30, label %31, label %84

31:                                               ; preds = %27
  store i32 1, ptr %28, align 8
  br label %84

32:                                               ; preds = %20, %7
  %33 = phi ptr [ %25, %20 ], [ %16, %7 ]
  tail call void @llvm.memset.p0.i64(ptr noundef nonnull align 8 dereferenceable(96) %33, i8 0, i64 96, i1 false)
  %34 = getelementptr inbounds i8, ptr %0, i64 128
  %35 = load ptr, ptr %34, align 8
  %36 = getelementptr inbounds i8, ptr %0, i64 136
  store ptr %35, ptr %36, align 8
  br label %82

37:                                               ; preds = %3
  %38 = getelementptr inbounds i8, ptr %0, i64 236
  %39 = load i8, ptr %38, align 4
  %40 = and i8 %39, 1
  %.not = icmp eq i8 %40, 0
  br i1 %.not, label %73, label %41

41:                                               ; preds = %37
  %42 = getelementptr inbounds i8, ptr %0, i64 88
  %43 = load ptr, ptr %42, align 8
  %44 = getelementptr inbounds i8, ptr %0, i64 160
  %45 = load ptr, ptr %44, align 8
  %46 = tail call ptr @lxb_html_tokenizer_error_add(ptr noundef %43, ptr noundef %45, i32 noundef 14) #4
  %47 = getelementptr inbounds i8, ptr %0, i64 64
  %48 = load ptr, ptr %47, align 8
  %49 = getelementptr inbounds i8, ptr %48, i64 88
  %50 = load i32, ptr %49, align 8
  %51 = or i32 %50, 4
  store i32 %51, ptr %49, align 8
  %52 = load ptr, ptr %47, align 8
  %53 = load ptr, ptr %52, align 8
  %54 = getelementptr inbounds i8, ptr %52, i64 8
  %55 = load ptr, ptr %54, align 8
  %.not47 = icmp eq ptr %53, %55
  br i1 %.not47, label %68, label %56

56:                                               ; preds = %41
  %57 = getelementptr inbounds i8, ptr %0, i64 16
  %58 = load ptr, ptr %57, align 8
  %59 = getelementptr inbounds i8, ptr %0, i64 24
  %60 = load ptr, ptr %59, align 8
  %61 = tail call ptr %58(ptr noundef nonnull %0, ptr noundef nonnull %52, ptr noundef %60) #4
  store ptr %61, ptr %47, align 8
  %62 = icmp eq ptr %61, null
  br i1 %62, label %63, label %68

63:                                               ; preds = %56
  %64 = getelementptr inbounds i8, ptr %0, i64 232
  %65 = load i32, ptr %64, align 8
  %66 = icmp eq i32 %65, 0
  br i1 %66, label %67, label %84

67:                                               ; preds = %63
  store i32 1, ptr %64, align 8
  br label %84

68:                                               ; preds = %56, %41
  %69 = phi ptr [ %61, %56 ], [ %52, %41 ]
  tail call void @llvm.memset.p0.i64(ptr noundef nonnull align 8 dereferenceable(96) %69, i8 0, i64 96, i1 false)
  %70 = getelementptr inbounds i8, ptr %0, i64 128
  %71 = load ptr, ptr %70, align 8
  %72 = getelementptr inbounds i8, ptr %0, i64 136
  store ptr %71, ptr %72, align 8
  br label %84

73:                                               ; preds = %37, %3
  %74 = getelementptr inbounds i8, ptr %0, i64 88
  %75 = load ptr, ptr %74, align 8
  %76 = tail call ptr @lxb_html_tokenizer_error_add(ptr noundef %75, ptr noundef nonnull %1, i32 noundef 26) #4
  %77 = getelementptr inbounds i8, ptr %0, i64 64
  %78 = load ptr, ptr %77, align 8
  %79 = getelementptr inbounds i8, ptr %78, i64 88
  %80 = load i32, ptr %79, align 8
  %81 = or i32 %80, 4
  store i32 %81, ptr %79, align 8
  store ptr @lxb_html_tokenizer_state_doctype_bogus, ptr %0, align 8
  br label %84

82:                                               ; preds = %3, %3, %3, %3, %3, %32, %6, %5
  %83 = getelementptr inbounds i8, ptr %1, i64 1
  br label %84

84:                                               ; preds = %63, %67, %27, %31, %82, %73, %68
  %.0 = phi ptr [ %1, %73 ], [ %2, %68 ], [ %83, %82 ], [ %2, %31 ], [ %2, %27 ], [ %2, %67 ], [ %2, %63 ]
  ret ptr %.0
}